target datalayout = "e-m:e-p270:32:32-p271:32:32-p272:64:64-i64:64-i128:128-f80:128-n8:16:32:64-S128"
target triple = "x86_64-pc-linux-gnu"

%"struct.duckdb_zstd::ZSTD_customMem" = type { ptr, ptr, ptr }
%"struct.duckdb_zstd::ZSTD_DCtx_s" = type { ptr, ptr, ptr, ptr, %"struct.duckdb_zstd::ZSTD_entropyDTables_t", [640 x i32], ptr, ptr, ptr, ptr, i64, %"struct.duckdb_zstd::ZSTD_frameHeader", i64, i64, i32, i32, i32, i32, %"struct.duckdb_zstd::XXH64_state_s", i64, i32, i32, i32, ptr, %"struct.duckdb_zstd::ZSTD_customMem", i64, i64, i64, i32, i32, ptr, ptr, i32, i32, i32, ptr, i32, i32, i32, i32, ptr, i64, i64, i64, ptr, i64, i64, i64, i64, i32, i32, i32, %"struct.duckdb_zstd::ZSTD_outBuffer_s", ptr, ptr, i32, [65568 x i8], [18 x i8], i64, i64 }
%"struct.duckdb_zstd::ZSTD_entropyDTables_t" = type { [513 x %"struct.duckdb_zstd::ZSTD_seqSymbol"], [257 x %"struct.duckdb_zstd::ZSTD_seqSymbol"], [513 x %"struct.duckdb_zstd::ZSTD_seqSymbol"], [4097 x i32], [3 x i32], [157 x i32] }
%"struct.duckdb_zstd::ZSTD_seqSymbol" = type { i16, i8, i8, i32 }
%"struct.duckdb_zstd::ZSTD_frameHeader" = type { i64, i64, i32, i32, i32, i32, i32, i32, i32 }
%"struct.duckdb_zstd::XXH64_state_s" = type { i64, i64, i64, i64, i64, [4 x i64], i32, [2 x i32] }
%"struct.duckdb_zstd::ZSTD_outBuffer_s" = type { ptr, i64, i64 }
%"struct.duckdb_zstd::ZSTD_bounds" = type { i64, i32, i32 }

; Function Attrs: mustprogress nounwind uwtable
define { i64, i64 } @_ZN11duckdb_zstd21ZSTD_dParam_getBoundsENS_15ZSTD_dParameterE(i32 noundef %0) #2 {
  %2 = alloca %"struct.duckdb_zstd::ZSTD_bounds", align 8
  %3 = alloca i32, align 4
  store i32 %0, ptr %3, align 4, !tbaa !133
  call void @llvm.memset.p0.i64(ptr align 8 %2, i8 0, i64 16, i1 false)
  %4 = load i32, ptr %3, align 4, !tbaa !133
  switch i32 %4, label %26 [
    i32 100, label %5
    i32 1000, label %8
    i32 1001, label %11
    i32 1002, label %14
    i32 1003, label %17
    i32 1004, label %20
    i32 1005, label %23
  ]

5:                                                ; preds = %1
  %6 = getelementptr inbounds nuw %"struct.duckdb_zstd::ZSTD_bounds", ptr %2, i32 0, i32 1
  store i32 10, ptr %6, align 8, !tbaa !129
  %7 = getelementptr inbounds nuw %"struct.duckdb_zstd::ZSTD_bounds", ptr %2, i32 0, i32 2
  store i32 31, ptr %7, align 4, !tbaa !131
  br label %29

8:                                                ; preds = %1
  %9 = getelementptr inbounds nuw %"struct.duckdb_zstd::ZSTD_bounds", ptr %2, i32 0, i32 1
  store i32 0, ptr %9, align 8, !tbaa !129
  %10 = getelementptr inbounds nuw %"struct.duckdb_zstd::ZSTD_bounds", ptr %2, i32 0, i32 2
  store i32 1, ptr %10, align 4, !tbaa !131
  br label %29

11:                                               ; preds = %1
  %12 = getelementptr inbounds nuw %"struct.duckdb_zstd::ZSTD_bounds", ptr %2, i32 0, i32 1
  store i32 0, ptr %12, align 8, !tbaa !129
  %13 = getelementptr inbounds nuw %"struct.duckdb_zstd::ZSTD_bounds", ptr %2, i32 0, i32 2
  store i32 1, ptr %13, align 4, !tbaa !131
  br label %29

14:                                               ; preds = %1
  %15 = getelementptr inbounds nuw %"struct.duckdb_zstd::ZSTD_bounds", ptr %2, i32 0, i32 1
  store i32 0, ptr %15, align 8, !tbaa !129
  %16 = getelementptr inbounds nuw %"struct.duckdb_zstd::ZSTD_bounds", ptr %2, i32 0, i32 2
  store i32 1, ptr %16, align 4, !tbaa !131
  br label %29

17:                                               ; preds = %1
  %18 = getelementptr inbounds nuw %"struct.duckdb_zstd::ZSTD_bounds", ptr %2, i32 0, i32 1
  store i32 0, ptr %18, align 8, !tbaa !129
  %19 = getelementptr inbounds nuw %"struct.duckdb_zstd::ZSTD_bounds", ptr %2, i32 0, i32 2
  store i32 1, ptr %19, align 4, !tbaa !131
  br label %29

20:                                               ; preds = %1
  %21 = getelementptr inbounds nuw %"struct.duckdb_zstd::ZSTD_bounds", ptr %2, i32 0, i32 1
  store i32 0, ptr %21, align 8, !tbaa !129
  %22 = getelementptr inbounds nuw %"struct.duckdb_zstd::ZSTD_bounds", ptr %2, i32 0, i32 2
  store i32 1, ptr %22, align 4, !tbaa !131
  br label %29

23:                                               ; preds = %1
  %24 = getelementptr inbounds nuw %"struct.duckdb_zstd::ZSTD_bounds", ptr %2, i32 0, i32 1
  store i32 1024, ptr %24, align 8, !tbaa !129
  %25 = getelementptr inbounds nuw %"struct.duckdb_zstd::ZSTD_bounds", ptr %2, i32 0, i32 2
  store i32 131072, ptr %25, align 4, !tbaa !131
  br label %29

26:                                               ; preds = %1
  br label %27

27:                                               ; preds = %26
  %28 = getelementptr inbounds nuw %"struct.duckdb_zstd::ZSTD_bounds", ptr %2, i32 0, i32 0
  store i64 -40, ptr %28, align 8, !tbaa !135
  br label %29

29:                                               ; preds = %27, %23, %20, %17, %14, %11, %8, %5
  %30 = load { i64, i64 }, ptr %2, align 8
  ret { i64, i64 } %30
}

; Function Attrs: mustprogress uwtable
define noundef i64 @_ZN11duckdb_zstd26ZSTD_DCtx_setMaxWindowSizeEPNS_11ZSTD_DCtx_sEm(ptr noundef %0, i64 noundef %1) #0 {
  %3 = alloca i64, align 8
  %4 = alloca ptr, align 8
  %5 = alloca i64, align 8
  %6 = alloca %"struct.duckdb_zstd::ZSTD_bounds", align 8
  %7 = alloca i64, align 8
  %8 = alloca i64, align 8
  %9 = alloca i32, align 4
  store ptr %0, ptr %4, align 8, !tbaa !3
  store i64 %1, ptr %5, align 8, !tbaa !34
  call void @llvm.lifetime.start.p0(i64 16, ptr %6) #12
  %10 = call { i64, i64 } @_ZN11duckdb_zstd21ZSTD_dParam_getBoundsENS_15ZSTD_dParameterE(i32 noundef 100)
  %11 = getelementptr inbounds nuw { i64, i64 }, ptr %6, i32 0, i32 0
  %12 = extractvalue { i64, i64 } %10, 0
  store i64 %12, ptr %11, align 8
  %13 = getelementptr inbounds nuw { i64, i64 }, ptr %6, i32 0, i32 1
  %14 = extractvalue { i64, i64 } %10, 1
  store i64 %14, ptr %13, align 8
  call void @llvm.lifetime.start.p0(i64 8, ptr %7) #12
  %15 = getelementptr inbounds nuw %"struct.duckdb_zstd::ZSTD_bounds", ptr %6, i32 0, i32 1
  %16 = load i32, ptr %15, align 8, !tbaa !129
  %17 = zext i32 %16 to i64
  %18 = shl i64 1, %17
  store i64 %18, ptr %7, align 8, !tbaa !34
  call void @llvm.lifetime.start.p0(i64 8, ptr %8) #12
  %19 = getelementptr inbounds nuw %"struct.duckdb_zstd::ZSTD_bounds", ptr %6, i32 0, i32 2
  %20 = load i32, ptr %19, align 4, !tbaa !131
  %21 = zext i32 %20 to i64
  %22 = shl i64 1, %21
  store i64 %22, ptr %8, align 8, !tbaa !34
  br label %23

23:                                               ; preds = %2
  %24 = load ptr, ptr %4, align 8, !tbaa !3
  %25 = getelementptr inbounds nuw %"struct.duckdb_zstd::ZSTD_DCtx_s", ptr %24, i32 0, i32 39
  %26 = load i32, ptr %25, align 4, !tbaa !41
  %27 = icmp ne i32 %26, 0
  br i1 %27, label %28, label %41

28:                                               ; preds = %23
  br label %29

29:                                               ; preds = %28
  br label %30

30:                                               ; preds = %29
  br label %31

31:                                               ; preds = %30
  br label %32

32:                                               ; preds = %31
  br label %33

33:                                               ; preds = %32
  br label %34

34:                                               ; preds = %33
  br label %35

35:                                               ; preds = %34
  br label %36

36:                                               ; preds = %35
  br label %37

37:                                               ; preds = %36
  br label %38

38:                                               ; preds = %37
  br label %39

39:                                               ; preds = %38
  br label %40

40:                                               ; preds = %39
  store i64 -60, ptr %3, align 8
  store i32 1, ptr %9, align 4
  br label %87

41:                                               ; preds = %23
  br label %42

42:                                               ; preds = %41
  br label %43

43:                                               ; preds = %42
  br label %44

44:                                               ; preds = %43
  %45 = load i64, ptr %5, align 8, !tbaa !34
  %46 = load i64, ptr %7, align 8, !tbaa !34
  %47 = icmp ult i64 %45, %46
  br i1 %47, label %48, label %61

48:                                               ; preds = %44
  br label %49

49:                                               ; preds = %48
  br label %50

50:                                               ; preds = %49
  br label %51

51:                                               ; preds = %50
  br label %52

52:                                               ; preds = %51
  br label %53

53:                                               ; preds = %52
  br label %54

54:                                               ; preds = %53
  br label %55

55:                                               ; preds = %54
  br label %56

56:                                               ; preds = %55
  br label %57

57:                                               ; preds = %56
  br label %58

58:                                               ; preds = %57
  br label %59

59:                                               ; preds = %58
  br label %60

60:                                               ; preds = %59
  store i64 -42, ptr %3, align 8
  store i32 1, ptr %9, align 4
  br label %87

61:                                               ; preds = %44
  br label %62

62:                                               ; preds = %61
  br label %63

63:                                               ; preds = %62
  br label %64

64:                                               ; preds = %63
  %65 = load i64, ptr %5, align 8, !tbaa !34
  %66 = load i64, ptr %8, align 8, !tbaa !34
  %67 = icmp ugt i64 %65, %66
  br i1 %67, label %68, label %81

68:                                               ; preds = %64
  br label %69

69:                                               ; preds = %68
  br label %70

70:                                               ; preds = %69
  br label %71

71:                                               ; preds = %70
  br label %72

72:                                               ; preds = %71
  br label %73

73:                                               ; preds = %72
  br label %74

74:                                               ; preds = %73
  br label %75

75:                                               ; preds = %74
  br label %76

76:                                               ; preds = %75
  br label %77

77:                                               ; preds = %76
  br label %78

78:                                               ; preds = %77
  br label %79

79:                                               ; preds = %78
  br label %80

80:                                               ; preds = %79
  store i64 -42, ptr %3, align 8
  store i32 1, ptr %9, align 4
  br label %87

81:                                               ; preds = %64
  br label %82

82:                                               ; preds = %81
  br label %83

83:                                               ; preds = %82
  %84 = load i64, ptr %5, align 8, !tbaa !34
  %85 = load ptr, ptr %4, align 8, !tbaa !3
  %86 = getelementptr inbounds nuw %"struct.duckdb_zstd::ZSTD_DCtx_s", ptr %85, i32 0, i32 43
  store i64 %84, ptr %86, align 8, !tbaa !132
  store i64 0, ptr %3, align 8
  store i32 1, ptr %9, align 4
  br label %87

87:                                               ; preds = %83, %80, %60, %40
  call void @llvm.lifetime.end.p0(i64 8, ptr %8) #12
  call void @llvm.lifetime.end.p0(i64 8, ptr %7) #12
  call void @llvm.lifetime.end.p0(i64 16, ptr %6) #12
  %88 = load i64, ptr %3, align 8
  ret i64 %88
}